; Function Attrs: nounwind sspstrong uwtable
define internal noundef i64 @wmap_each(i64 noundef returned %0) #0 {
  %2 = alloca %struct.wmap_foreach_data, align 8
  %3 = tail call ptr @rb_check_typeddata(i64 noundef %0, ptr noundef nonnull @weakmap_type) #10
  %.val = load ptr, ptr %3, align 8, !tbaa !17
  call void @llvm.lifetime.start.p0(i64 24, ptr nonnull %2) #10
  store ptr @wmap_each_i, ptr %2, align 8, !tbaa !20
  %4 = getelementptr inbounds nuw i8, ptr %2, i64 8
  %5 = getelementptr inbounds nuw i8, ptr %2, i64 16
  %6 = ptrtoint ptr %2 to i64
  call void @llvm.memset.p0.i64(ptr noundef nonnull align 8 dereferenceable(16) %4, i8 0, i64 16, i1 false)
  %7 = call i32 @rb_st_foreach(ptr noundef %.val, ptr noundef nonnull @wmap_foreach_i, i64 noundef %6) #10
  %8 = load ptr, ptr %5, align 8, !tbaa !24
  call void @ruby_xfree(ptr noundef %8) #10
  call void @llvm.lifetime.end.p0(i64 24, ptr nonnull %2) #10
  ret i64 %0
}